target datalayout = "e-m:e-p270:32:32-p271:32:32-p272:64:64-i64:64-i128:128-f80:128-n8:16:32:64-S128"
target triple = "x86_64-pc-linux-gnu"

%struct.evthread_lock_callbacks = type { i32, i32, ptr, ptr, ptr, ptr }

@arc4rand_lock = internal global ptr null, align 8
@evthread_lock_fns_ = external global %struct.evthread_lock_callbacks, align 8

; Function Attrs: nounwind uwtable
define i32 @evutil_secure_rng_init() #0 {
  %1 = alloca i32, align 4
  call void @llvm.lifetime.start.p0(i64 4, ptr %1) #6
  br label %2

2:                                                ; preds = %0
  %3 = load ptr, ptr @arc4rand_lock, align 8
  %4 = icmp ne ptr %3, null
  br i1 %4, label %5, label %9

5:                                                ; preds = %2
  %6 = load ptr, ptr getelementptr inbounds nuw (%struct.evthread_lock_callbacks, ptr @evthread_lock_fns_, i32 0, i32 4), align 8
  %7 = load ptr, ptr @arc4rand_lock, align 8
  %8 = call i32 %6(i32 noundef 0, ptr noundef %7)
  br label %9

9:                                                ; preds = %5, %2
  br label %10

10:                                               ; preds = %9
  br label %11

11:                                               ; preds = %10
  %12 = call i32 @arc4_stir()
  %13 = icmp ne i32 %12, 0
  %14 = xor i1 %13, true
  %15 = select i1 %14, i32 0, i32 -1
  store i32 %15, ptr %1, align 4
  br label %16

16:                                               ; preds = %11
  %17 = load ptr, ptr @arc4rand_lock, align 8
  %18 = icmp ne ptr %17, null
  br i1 %18, label %19, label %23

19:                                               ; preds = %16
  %20 = load ptr, ptr getelementptr inbounds nuw (%struct.evthread_lock_callbacks, ptr @evthread_lock_fns_, i32 0, i32 5), align 8
  %21 = load ptr, ptr @arc4rand_lock, align 8
  %22 = call i32 %20(i32 noundef 0, ptr noundef %21)
  br label %23

23:                                               ; preds = %19, %16
  br label %24

24:                                               ; preds = %23
  br label %25

25:                                               ; preds = %24
  %26 = load i32, ptr %1, align 4
  call void @llvm.lifetime.end.p0(i64 4, ptr %1) #6
  ret i32 %26
}