; Function Attrs: nounwind uwtable
define range(i32 -1, 1) i32 @evutil_secure_rng_init() local_unnamed_addr #0 {
  %1 = load ptr, ptr @arc4rand_lock, align 8
  %.not = icmp eq ptr %1, null
  br i1 %.not, label %5, label %2

2:                                                ; preds = %0
  %3 = load ptr, ptr getelementptr inbounds nuw (i8, ptr @evthread_lock_fns_, i64 24), align 8
  %4 = tail call i32 %3(i32 noundef 0, ptr noundef nonnull %1) #7
  br label %5

5:                                                ; preds = %2, %0
  %6 = tail call fastcc i32 @arc4_stir()
  %7 = load ptr, ptr @arc4rand_lock, align 8
  %.not3 = icmp eq ptr %7, null
  br i1 %.not3, label %11, label %8

8:                                                ; preds = %5
  %9 = load ptr, ptr getelementptr inbounds nuw (i8, ptr @evthread_lock_fns_, i64 32), align 8
  %10 = tail call i32 %9(i32 noundef 0, ptr noundef nonnull %7) #7
  br label %11

11:                                               ; preds = %8, %5
  %.not2 = icmp ne i32 %6, 0
  %12 = sext i1 %.not2 to i32
  ret i32 %12
}